target datalayout = "e-m:e-p270:32:32-p271:32:32-p272:64:64-i64:64-i128:128-f80:128-n8:16:32:64-S128"
target triple = "x86_64-pc-linux-gnu"

%"class.duckdb_re2::StringPiece" = type { ptr, i64 }

; Function Attrs: inlinehint mustprogress nounwind uwtable
define linkonce_odr hidden void @_ZN9__gnu_cxx5__ops20__iter_equal_to_iterEv() #2 comdat {
  ret void
}

; Function Attrs: inlinehint mustprogress uwtable
define linkonce_odr noundef ptr @_ZSt6searchIPKcS1_ET_S2_S2_T0_S3_(ptr noundef %0, ptr noundef %1, ptr noundef %2, ptr noundef %3) #5 comdat {
  %5 = alloca ptr, align 8
  %6 = alloca ptr, align 8
  %7 = alloca ptr, align 8
  %8 = alloca ptr, align 8
  store ptr %0, ptr %5, align 8, !tbaa !8
  store ptr %1, ptr %6, align 8, !tbaa !8
  store ptr %2, ptr %7, align 8, !tbaa !8
  store ptr %3, ptr %8, align 8, !tbaa !8
  %9 = load ptr, ptr %5, align 8, !tbaa !8
  %10 = load ptr, ptr %6, align 8, !tbaa !8
  %11 = load ptr, ptr %7, align 8, !tbaa !8
  %12 = load ptr, ptr %8, align 8, !tbaa !8
  call void @_ZN9__gnu_cxx5__ops20__iter_equal_to_iterEv()
  %13 = call noundef ptr @_ZSt8__searchIPKcS1_N9__gnu_cxx5__ops19_Iter_equal_to_iterEET_S5_S5_T0_S6_T1_(ptr noundef %9, ptr noundef %10, ptr noundef %11, ptr noundef %12)
  ret ptr %13
}

; Function Attrs: mustprogress uwtable
define hidden noundef i64 @_ZNK10duckdb_re211StringPiece4findERKS0_m(ptr noundef nonnull align 8 dereferenceable(16) %0, ptr noundef nonnull align 8 dereferenceable(16) %1, i64 noundef %2) #0 align 2 {
  %4 = alloca i64, align 8
  %5 = alloca ptr, align 8
  %6 = alloca ptr, align 8
  %7 = alloca i64, align 8
  %8 = alloca ptr, align 8
  %9 = alloca i64, align 8
  store ptr %0, ptr %5, align 8, !tbaa !3
  store ptr %1, ptr %6, align 8, !tbaa !3
  store i64 %2, ptr %7, align 8, !tbaa !10
  %10 = load ptr, ptr %5, align 8
  %11 = load i64, ptr %7, align 8, !tbaa !10
  %12 = getelementptr inbounds nuw %"class.duckdb_re2::StringPiece", ptr %10, i32 0, i32 1
  %13 = load i64, ptr %12, align 8, !tbaa !12
  %14 = icmp ugt i64 %11, %13
  br i1 %14, label %15, label %16

15:                                               ; preds = %3
  store i64 -1, ptr %4, align 8
  br label %56

16:                                               ; preds = %3
  call void @llvm.lifetime.start.p0(i64 8, ptr %8) #8
  %17 = getelementptr inbounds nuw %"class.duckdb_re2::StringPiece", ptr %10, i32 0, i32 0
  %18 = load ptr, ptr %17, align 8, !tbaa !14
  %19 = load i64, ptr %7, align 8, !tbaa !10
  %20 = getelementptr inbounds nuw i8, ptr %18, i64 %19
  %21 = getelementptr inbounds nuw %"class.duckdb_re2::StringPiece", ptr %10, i32 0, i32 0
  %22 = load ptr, ptr %21, align 8, !tbaa !14
  %23 = getelementptr inbounds nuw %"class.duckdb_re2::StringPiece", ptr %10, i32 0, i32 1
  %24 = load i64, ptr %23, align 8, !tbaa !12
  %25 = getelementptr inbounds nuw i8, ptr %22, i64 %24
  %26 = load ptr, ptr %6, align 8, !tbaa !3
  %27 = getelementptr inbounds nuw %"class.duckdb_re2::StringPiece", ptr %26, i32 0, i32 0
  %28 = load ptr, ptr %27, align 8, !tbaa !14
  %29 = load ptr, ptr %6, align 8, !tbaa !3
  %30 = getelementptr inbounds nuw %"class.duckdb_re2::StringPiece", ptr %29, i32 0, i32 0
  %31 = load ptr, ptr %30, align 8, !tbaa !14
  %32 = load ptr, ptr %6, align 8, !tbaa !3
  %33 = getelementptr inbounds nuw %"class.duckdb_re2::StringPiece", ptr %32, i32 0, i32 1
  %34 = load i64, ptr %33, align 8, !tbaa !12
  %35 = getelementptr inbounds nuw i8, ptr %31, i64 %34
  %36 = call noundef ptr @_ZSt6searchIPKcS1_ET_S2_S2_T0_S3_(ptr noundef %20, ptr noundef %25, ptr noundef %28, ptr noundef %35)
  store ptr %36, ptr %8, align 8, !tbaa !8
  call void @llvm.lifetime.start.p0(i64 8, ptr %9) #8
  %37 = load ptr, ptr %8, align 8, !tbaa !8
  %38 = getelementptr inbounds nuw %"class.duckdb_re2::StringPiece", ptr %10, i32 0, i32 0
  %39 = load ptr, ptr %38, align 8, !tbaa !14
  %40 = ptrtoint ptr %37 to i64
  %41 = ptrtoint ptr %39 to i64
  %42 = sub i64 %40, %41
  store i64 %42, ptr %9, align 8, !tbaa !10
  %43 = load i64, ptr %9, align 8, !tbaa !10
  %44 = load ptr, ptr %6, align 8, !tbaa !3
  %45 = getelementptr inbounds nuw %"class.duckdb_re2::StringPiece", ptr %44, i32 0, i32 1
  %46 = load i64, ptr %45, align 8, !tbaa !12
  %47 = add i64 %43, %46
  %48 = getelementptr inbounds nuw %"class.duckdb_re2::StringPiece", ptr %10, i32 0, i32 1
  %49 = load i64, ptr %48, align 8, !tbaa !12
  %50 = icmp ule i64 %47, %49
  br i1 %50, label %51, label %53

51:                                               ; preds = %16
  %52 = load i64, ptr %9, align 8, !tbaa !10
  br label %54

53:                                               ; preds = %16
  br label %54

54:                                               ; preds = %53, %51
  %55 = phi i64 [ %52, %51 ], [ -1, %53 ]
  store i64 %55, ptr %4, align 8
  call void @llvm.lifetime.end.p0(i64 8, ptr %9) #8
  call void @llvm.lifetime.end.p0(i64 8, ptr %8) #8
  br label %56

56:                                               ; preds = %54, %15
  %57 = load i64, ptr %4, align 8
  ret i64 %57
}