; Function Attrs: mustprogress uwtable
define hidden noundef i64 @_ZNK10duckdb_re211StringPiece4findERKS0_m(ptr noundef nonnull readonly align 8 captures(none) dereferenceable(16) %0, ptr noundef nonnull readonly align 8 captures(none) dereferenceable(16) %1, i64 noundef %2) local_unnamed_addr #4 align 2 {
  %4 = getelementptr inbounds nuw i8, ptr %0, i64 8
  %5 = load i64, ptr %4, align 8, !tbaa !3
  %6 = icmp ugt i64 %2, %5
  br i1 %6, label %24, label %7

7:                                                ; preds = %3
  %8 = load ptr, ptr %0, align 8, !tbaa !10
  %9 = getelementptr inbounds nuw i8, ptr %8, i64 %2
  %10 = getelementptr inbounds nuw i8, ptr %8, i64 %5
  %11 = load ptr, ptr %1, align 8, !tbaa !10
  %12 = getelementptr inbounds nuw i8, ptr %1, i64 8
  %13 = load i64, ptr %12, align 8, !tbaa !3
  %14 = getelementptr inbounds nuw i8, ptr %11, i64 %13
  %15 = tail call noundef ptr @_ZSt8__searchIPKcS1_N9__gnu_cxx5__ops19_Iter_equal_to_iterEET_S5_S5_T0_S6_T1_(ptr noundef %9, ptr noundef %10, ptr noundef %11, ptr noundef %14)
  %16 = load ptr, ptr %0, align 8, !tbaa !10
  %17 = ptrtoint ptr %15 to i64
  %18 = ptrtoint ptr %16 to i64
  %19 = sub i64 %17, %18
  %20 = load i64, ptr %12, align 8, !tbaa !3
  %21 = add i64 %19, %20
  %22 = load i64, ptr %4, align 8, !tbaa !3
  %.not = icmp ugt i64 %21, %22
  %23 = select i1 %.not, i64 -1, i64 %19
  br label %24

24:                                               ; preds = %3, %7
  %.0 = phi i64 [ %23, %7 ], [ -1, %3 ]
  ret i64 %.0
}